; ModuleID = '16/1127.c'
source_filename = "16/1127.c"
target datalayout = "e-m:e-p270:32:32-p271:32:32-p272:64:64-i64:64-f80:128-n8:16:32:64-S128"
target triple = "x86_64-pc-linux-gnu"

@.str = private unnamed_addr constant [3 x i8] c"%d\00", align 1
@.str.1 = private unnamed_addr constant [4 x i8] c"%d\0A\00", align 1
@.str.2 = private unnamed_addr constant [5 x i8] c"0%d\0A\00", align 1
@.str.3 = private unnamed_addr constant [6 x i8] c"00%d\0A\00", align 1
@.str.4 = private unnamed_addr constant [7 x i8] c"000%d\0A\00", align 1
@.str.5 = private unnamed_addr constant [8 x i8] c"0000%d\0A\00", align 1

; Function Attrs: noinline nounwind uwtable
define dso_local i32 @main() #0 {
  %1 = alloca i32, align 4
  %2 = alloca i32, align 4
  %3 = alloca i32, align 4
  %4 = alloca i32, align 4
  store i32 0, i32* %1, align 4
  %5 = call i32 (i8*, ...) @__isoc99_scanf(i8* getelementptr inbounds ([3 x i8], [3 x i8]* @.str, i64 0, i64 0), i32* %2)
  store i32 0, i32* %3, align 4
  store i32 0, i32* %4, align 4
  br label %6

6:                                                ; preds = %9, %0
  %7 = load i32, i32* %2, align 4
  %8 = icmp sgt i32 %7, 0
  br i1 %8, label %9, label %24

9:                                                ; preds = %6
  %10 = load i32, i32* %3, align 4
  %11 = mul nsw i32 %10, 10
  %12 = load i32, i32* %2, align 4
  %13 = srem i32 %12, 10
  %14 = add nsw i32 %11, %13
  store i32 %14, i32* %3, align 4
  %15 = load i32, i32* %4, align 4
  %16 = load i32, i32* %2, align 4
  %17 = srem i32 %16, 10
  %18 = icmp ne i32 %17, 0
  %19 = xor i1 %18, true
  %20 = zext i1 %19 to i32
  %21 = add nsw i32 %15, %20
  store i32 %21, i32* %4, align 4
  %22 = load i32, i32* %2, align 4
  %23 = sdiv i32 %22, 10
  store i32 %23, i32* %2, align 4
  br label %6

24:                                               ; preds = %6
  %25 = load i32, i32* %4, align 4
  switch i32 %25, label %41 [
    i32 0, label %26
    i32 1, label %29
    i32 2, label %32
    i32 3, label %35
    i32 4, label %38
  ]

26:                                               ; preds = %24
  %27 = load i32, i32* %3, align 4
  %28 = call i32 (i8*, ...) @printf(i8* getelementptr inbounds ([4 x i8], [4 x i8]* @.str.1, i64 0, i64 0), i32 %27)
  br label %41

29:                                               ; preds = %24
  %30 = load i32, i32* %3, align 4
  %31 = call i32 (i8*, ...) @printf(i8* getelementptr inbounds ([5 x i8], [5 x i8]* @.str.2, i64 0, i64 0), i32 %30)
  br label %41

32:                                               ; preds = %24
  %33 = load i32, i32* %3, align 4
  %34 = call i32 (i8*, ...) @printf(i8* getelementptr inbounds ([6 x i8], [6 x i8]* @.str.3, i64 0, i64 0), i32 %33)
  br label %41

35:                                               ; preds = %24
  %36 = load i32, i32* %3, align 4
  %37 = call i32 (i8*, ...) @printf(i8* getelementptr inbounds ([7 x i8], [7 x i8]* @.str.4, i64 0, i64 0), i32 %36)
  br label %41

38:                                               ; preds = %24
  %39 = load i32, i32* %3, align 4
  %40 = call i32 (i8*, ...) @printf(i8* getelementptr inbounds ([8 x i8], [8 x i8]* @.str.5, i64 0, i64 0), i32 %39)
  br label %41

41:                                               ; preds = %24, %38, %35, %32, %29, %26
  ret i32 0
}

declare dso_local i32 @__isoc99_scanf(i8*, ...) #1

declare dso_local i32 @printf(i8*, ...) #1


!llvm.module.flags = !{!0}
!llvm.ident = !{!1}

!0 = !{i32 1, !"wchar_size", i32 4}
!1 = !{!"clang version 10.0.0-4ubuntu1 "}
